target datalayout = "e-m:e-p270:32:32-p271:32:32-p272:64:64-i64:64-i128:128-f80:128-n8:16:32:64-S128"
target triple = "x86_64-pc-linux-gnu"

; Function Attrs: nounwind uwtable
define void @AES_cfb128_encrypt(ptr noundef %0, ptr noundef %1, i64 noundef %2, ptr noundef %3, ptr noundef %4, ptr noundef %5, i32 noundef %6) #0 {
  %8 = alloca ptr, align 8
  %9 = alloca ptr, align 8
  %10 = alloca i64, align 8
  %11 = alloca ptr, align 8
  %12 = alloca ptr, align 8
  %13 = alloca ptr, align 8
  %14 = alloca i32, align 4
  store ptr %0, ptr %8, align 8, !tbaa !3
  store ptr %1, ptr %9, align 8, !tbaa !3
  store i64 %2, ptr %10, align 8, !tbaa !8
  store ptr %3, ptr %11, align 8, !tbaa !10
  store ptr %4, ptr %12, align 8, !tbaa !3
  store ptr %5, ptr %13, align 8, !tbaa !12
  store i32 %6, ptr %14, align 4, !tbaa !14
  %15 = load ptr, ptr %8, align 8, !tbaa !3
  %16 = load ptr, ptr %9, align 8, !tbaa !3
  %17 = load i64, ptr %10, align 8, !tbaa !8
  %18 = load ptr, ptr %11, align 8, !tbaa !10
  %19 = load ptr, ptr %12, align 8, !tbaa !3
  %20 = load ptr, ptr %13, align 8, !tbaa !12
  %21 = load i32, ptr %14, align 4, !tbaa !14
  call void @CRYPTO_cfb128_encrypt(ptr noundef %15, ptr noundef %16, i64 noundef %17, ptr noundef %18, ptr noundef %19, ptr noundef %20, i32 noundef %21, ptr noundef @AES_encrypt)
  ret void
}

declare void @CRYPTO_cfb128_encrypt(ptr noundef, ptr noundef, i64 noundef, ptr noundef, ptr noundef, ptr noundef, i32 noundef, ptr noundef) #1

declare void @AES_encrypt(ptr noundef, ptr noundef, ptr noundef) #1

; Function Attrs: nounwind uwtable
define void @AES_cfb1_encrypt(ptr noundef %0, ptr noundef %1, i64 noundef %2, ptr noundef %3, ptr noundef %4, ptr noundef %5, i32 noundef %6) #0 {
  %8 = alloca ptr, align 8
  %9 = alloca ptr, align 8
  %10 = alloca i64, align 8
  %11 = alloca ptr, align 8
  %12 = alloca ptr, align 8
  %13 = alloca ptr, align 8
  %14 = alloca i32, align 4
  store ptr %0, ptr %8, align 8, !tbaa !3
  store ptr %1, ptr %9, align 8, !tbaa !3
  store i64 %2, ptr %10, align 8, !tbaa !8
  store ptr %3, ptr %11, align 8, !tbaa !10
  store ptr %4, ptr %12, align 8, !tbaa !3
  store ptr %5, ptr %13, align 8, !tbaa !12
  store i32 %6, ptr %14, align 4, !tbaa !14
  %15 = load ptr, ptr %8, align 8, !tbaa !3
  %16 = load ptr, ptr %9, align 8, !tbaa !3
  %17 = load i64, ptr %10, align 8, !tbaa !8
  %18 = load ptr, ptr %11, align 8, !tbaa !10
  %19 = load ptr, ptr %12, align 8, !tbaa !3
  %20 = load ptr, ptr %13, align 8, !tbaa !12
  %21 = load i32, ptr %14, align 4, !tbaa !14
  call void @CRYPTO_cfb128_1_encrypt(ptr noundef %15, ptr noundef %16, i64 noundef %17, ptr noundef %18, ptr noundef %19, ptr noundef %20, i32 noundef %21, ptr noundef @AES_encrypt)
  ret void
}

declare void @CRYPTO_cfb128_1_encrypt(ptr noundef, ptr noundef, i64 noundef, ptr noundef, ptr noundef, ptr noundef, i32 noundef, ptr noundef) #1

; Function Attrs: nounwind uwtable
define void @AES_cfb8_encrypt(ptr noundef %0, ptr noundef %1, i64 noundef %2, ptr noundef %3, ptr noundef %4, ptr noundef %5, i32 noundef %6) #0 {
  %8 = alloca ptr, align 8
  %9 = alloca ptr, align 8
  %10 = alloca i64, align 8
  %11 = alloca ptr, align 8
  %12 = alloca ptr, align 8
  %13 = alloca ptr, align 8
  %14 = alloca i32, align 4
  store ptr %0, ptr %8, align 8, !tbaa !3
  store ptr %1, ptr %9, align 8, !tbaa !3
  store i64 %2, ptr %10, align 8, !tbaa !8
  store ptr %3, ptr %11, align 8, !tbaa !10
  store ptr %4, ptr %12, align 8, !tbaa !3
  store ptr %5, ptr %13, align 8, !tbaa !12
  store i32 %6, ptr %14, align 4, !tbaa !14
  %15 = load ptr, ptr %8, align 8, !tbaa !3
  %16 = load ptr, ptr %9, align 8, !tbaa !3
  %17 = load i64, ptr %10, align 8, !tbaa !8
  %18 = load ptr, ptr %11, align 8, !tbaa !10
  %19 = load ptr, ptr %12, align 8, !tbaa !3
  %20 = load ptr, ptr %13, align 8, !tbaa !12
  %21 = load i32, ptr %14, align 4, !tbaa !14
  call void @CRYPTO_cfb128_8_encrypt(ptr noundef %15, ptr noundef %16, i64 noundef %17, ptr noundef %18, ptr noundef %19, ptr noundef %20, i32 noundef %21, ptr noundef @AES_encrypt)
  ret void
}

declare void @CRYPTO_cfb128_8_encrypt(ptr noundef, ptr noundef, i64 noundef, ptr noundef, ptr noundef, ptr noundef, i32 noundef, ptr noundef) #1


!llvm.module.flags = !{!0, !1, !2}

!0 = !{i32 1, !"wchar_size", i32 4}
!1 = !{i32 8, !"PIC Level", i32 2}
!2 = !{i32 7, !"uwtable", i32 2}
!3 = !{!4, !4, i64 0}
!4 = !{!"p1 omnipotent char", !5, i64 0}
!5 = !{!"any pointer", !6, i64 0}
!6 = !{!"omnipotent char", !7, i64 0}
!7 = !{!"Simple C/C++ TBAA"}
!8 = !{!9, !9, i64 0}
!9 = !{!"long", !6, i64 0}
!10 = !{!11, !11, i64 0}
!11 = !{!"p1 _ZTS10aes_key_st", !5, i64 0}
!12 = !{!13, !13, i64 0}
!13 = !{!"p1 int", !5, i64 0}
!14 = !{!15, !15, i64 0}
!15 = !{!"int", !6, i64 0}
